target datalayout = "e-m:e-p270:32:32-p271:32:32-p272:64:64-i64:64-i128:128-f80:128-n8:16:32:64-S128"
target triple = "x86_64-pc-linux-gnu"

%struct.asn1_string_st = type { i32, i32, ptr, i64 }

; Function Attrs: nounwind uwtable
define void @ossl_asn1_string_set_bits_left(ptr noundef %0, i32 noundef %1) #0 {
  %3 = alloca ptr, align 8
  %4 = alloca i32, align 4
  store ptr %0, ptr %3, align 8, !tbaa !29
  store i32 %1, ptr %4, align 4, !tbaa !17
  %5 = load ptr, ptr %3, align 8, !tbaa !29
  %6 = getelementptr inbounds nuw %struct.asn1_string_st, ptr %5, i32 0, i32 3
  %7 = load i64, ptr %6, align 8, !tbaa !31
  %8 = and i64 %7, -8
  store i64 %8, ptr %6, align 8, !tbaa !31
  %9 = load i32, ptr %4, align 4, !tbaa !17
  %10 = and i32 %9, 7
  %11 = or i32 8, %10
  %12 = zext i32 %11 to i64
  %13 = load ptr, ptr %3, align 8, !tbaa !29
  %14 = getelementptr inbounds nuw %struct.asn1_string_st, ptr %13, i32 0, i32 3
  %15 = load i64, ptr %14, align 8, !tbaa !31
  %16 = or i64 %15, %12
  store i64 %16, ptr %14, align 8, !tbaa !31
  ret void
}