; Function Attrs: mustprogress nofree norecurse nosync nounwind willreturn memory(argmem: readwrite) uwtable
define void @ossl_asn1_string_set_bits_left(ptr noundef captures(none) %0, i32 noundef %1) local_unnamed_addr #6 {
  %3 = getelementptr inbounds nuw i8, ptr %0, i64 16
  %4 = load i64, ptr %3, align 8, !tbaa !22
  %5 = and i64 %4, -16
  %6 = and i32 %1, 7
  %7 = or disjoint i32 %6, 8
  %8 = zext nneg i32 %7 to i64
  %9 = or disjoint i64 %5, %8
  store i64 %9, ptr %3, align 8, !tbaa !22
  ret void
}